target datalayout = "e-m:e-p270:32:32-p271:32:32-p272:64:64-i64:64-i128:128-f80:128-n8:16:32:64-S128"
target triple = "x86_64-pc-linux-gnu"

%"class.cv::Mat" = type { i32, i32, i32, i32, ptr, ptr, ptr, ptr, ptr, ptr, %"struct.cv::MatSize", %"struct.cv::MatStep" }
%"struct.cv::MatSize" = type { ptr }
%"struct.cv::MatStep" = type { ptr, [2 x i64] }
%"struct.cv::ximgproc::EdgeDrawing::Params" = type { i8, i32, i32, i32, i32, i32, float, i8, i8, i32, double, double, double }
%"class.cv::ximgproc::EdgeDrawing" = type { %"class.cv::Algorithm", %"struct.cv::ximgproc::EdgeDrawing::Params" }
%"class.cv::Algorithm" = type { ptr }
%"class.cv::ximgproc::EdgeDrawingImpl" = type { %"class.cv::ximgproc::EdgeDrawing", i32, i32, ptr, %"class.std::vector", %"class.std::vector.12", %"class.cv::Mat", ptr, ptr, i32, %"class.cv::Mat", double, ptr, ptr, i32, i32, %"class.std::vector.17", %"class.std::vector.17", %"class.cv::Mat", %"class.cv::Mat", %"class.cv::Mat", ptr, ptr, i32, i32, i32, %"class.std::vector.22", i32, i32, double, double, double, double, ptr, i32, i32, %"class.std::vector.27", %"class.std::vector.32", ptr, ptr, ptr, i32, i32, i32, ptr, ptr, ptr, ptr, ptr, ptr, ptr }
%"class.std::vector" = type { %"struct.std::_Vector_base" }
%"struct.std::_Vector_base" = type { %"struct.std::_Vector_base<std::vector<cv::Point_<int>>, std::allocator<std::vector<cv::Point_<int>>>>::_Vector_impl" }
%"struct.std::_Vector_base<std::vector<cv::Point_<int>>, std::allocator<std::vector<cv::Point_<int>>>>::_Vector_impl" = type { %"struct.std::_Vector_base<std::vector<cv::Point_<int>>, std::allocator<std::vector<cv::Point_<int>>>>::_Vector_impl_data" }
%"struct.std::_Vector_base<std::vector<cv::Point_<int>>, std::allocator<std::vector<cv::Point_<int>>>>::_Vector_impl_data" = type { ptr, ptr, ptr }
%"class.std::vector.12" = type { %"struct.std::_Vector_base.13" }
%"struct.std::_Vector_base.13" = type { %"struct.std::_Vector_base<int, std::allocator<int>>::_Vector_impl" }
%"struct.std::_Vector_base<int, std::allocator<int>>::_Vector_impl" = type { %"struct.std::_Vector_base<int, std::allocator<int>>::_Vector_impl_data" }
%"struct.std::_Vector_base<int, std::allocator<int>>::_Vector_impl_data" = type { ptr, ptr, ptr }
%"class.std::vector.17" = type { %"struct.std::_Vector_base.18" }
%"struct.std::_Vector_base.18" = type { %"struct.std::_Vector_base<cv::Point_<int>, std::allocator<cv::Point_<int>>>::_Vector_impl" }
%"struct.std::_Vector_base<cv::Point_<int>, std::allocator<cv::Point_<int>>>::_Vector_impl" = type { %"struct.std::_Vector_base<cv::Point_<int>, std::allocator<cv::Point_<int>>>::_Vector_impl_data" }
%"struct.std::_Vector_base<cv::Point_<int>, std::allocator<cv::Point_<int>>>::_Vector_impl_data" = type { ptr, ptr, ptr }
%"class.std::vector.22" = type { %"struct.std::_Vector_base.23" }
%"struct.std::_Vector_base.23" = type { %"struct.std::_Vector_base<EDLineSegment, std::allocator<EDLineSegment>>::_Vector_impl" }
%"struct.std::_Vector_base<EDLineSegment, std::allocator<EDLineSegment>>::_Vector_impl" = type { %"struct.std::_Vector_base<EDLineSegment, std::allocator<EDLineSegment>>::_Vector_impl_data" }
%"struct.std::_Vector_base<EDLineSegment, std::allocator<EDLineSegment>>::_Vector_impl_data" = type { ptr, ptr, ptr }
%"class.std::vector.27" = type { %"struct.std::_Vector_base.28" }
%"struct.std::_Vector_base.28" = type { %"struct.std::_Vector_base<mCircle, std::allocator<mCircle>>::_Vector_impl" }
%"struct.std::_Vector_base<mCircle, std::allocator<mCircle>>::_Vector_impl" = type { %"struct.std::_Vector_base<mCircle, std::allocator<mCircle>>::_Vector_impl_data" }
%"struct.std::_Vector_base<mCircle, std::allocator<mCircle>>::_Vector_impl_data" = type { ptr, ptr, ptr }
%"class.std::vector.32" = type { %"struct.std::_Vector_base.33" }
%"struct.std::_Vector_base.33" = type { %"struct.std::_Vector_base<mEllipse, std::allocator<mEllipse>>::_Vector_impl" }
%"struct.std::_Vector_base<mEllipse, std::allocator<mEllipse>>::_Vector_impl" = type { %"struct.std::_Vector_base<mEllipse, std::allocator<mEllipse>>::_Vector_impl_data" }
%"struct.std::_Vector_base<mEllipse, std::allocator<mEllipse>>::_Vector_impl_data" = type { ptr, ptr, ptr }

; Function Attrs: mustprogress nounwind uwtable
define hidden noundef i32 @_ZN2cv8ximgproc15EdgeDrawingImpl20ComputeMinLineLengthEv(ptr noundef nonnull align 8 dereferenceable(976) %0) #8 align 2 {
  %2 = alloca ptr, align 8
  %3 = alloca double, align 8
  store ptr %0, ptr %2, align 8, !tbaa !134
  %4 = load ptr, ptr %2, align 8
  call void @llvm.lifetime.start.p0(i64 8, ptr %3) #3
  %5 = getelementptr inbounds nuw %"class.cv::ximgproc::EdgeDrawingImpl", ptr %4, i32 0, i32 1
  %6 = load i32, ptr %5, align 8, !tbaa !213
  %7 = sitofp i32 %6 to double
  %8 = call double @log10(double noundef %7) #3, !tbaa !8
  %9 = getelementptr inbounds nuw %"class.cv::ximgproc::EdgeDrawingImpl", ptr %4, i32 0, i32 2
  %10 = load i32, ptr %9, align 4, !tbaa !211
  %11 = sitofp i32 %10 to double
  %12 = call double @log10(double noundef %11) #3, !tbaa !8
  %13 = fadd double %8, %12
  %14 = fmul double 2.000000e+00, %13
  store double %14, ptr %3, align 8, !tbaa !10
  %15 = load double, ptr %3, align 8, !tbaa !10
  %16 = fneg double %15
  %17 = call double @log10(double noundef 1.250000e-01) #3, !tbaa !8
  %18 = fdiv double %16, %17
  %19 = fmul double %18, 5.000000e-01
  %20 = call double @llvm.round.f64(double %19)
  %21 = fptosi double %20 to i32
  call void @llvm.lifetime.end.p0(i64 8, ptr %3) #3
  ret i32 %21
}