; Function Attrs: mustprogress nofree nounwind willreturn memory(write, argmem: readwrite) uwtable
define hidden noundef i32 @_ZN2cv8ximgproc15EdgeDrawingImpl20ComputeMinLineLengthEv(ptr noundef nonnull readonly align 8 captures(none) dereferenceable(976) %0) local_unnamed_addr #23 align 2 {
  %2 = getelementptr inbounds nuw i8, ptr %0, i64 72
  %3 = load i32, ptr %2, align 8, !tbaa !182
  %4 = sitofp i32 %3 to double
  %5 = tail call double @log10(double noundef %4) #41, !tbaa !15
  %6 = getelementptr inbounds nuw i8, ptr %0, i64 76
  %7 = load i32, ptr %6, align 4, !tbaa !180
  %8 = sitofp i32 %7 to double
  %9 = tail call double @log10(double noundef %8) #41, !tbaa !15
  %10 = fadd double %5, %9
  %11 = fmul double %10, -2.000000e+00
  %12 = fdiv double %11, 0xBFECE61CF8EF36FE
  %13 = fmul double %12, 5.000000e-01
  %14 = tail call double @llvm.round.f64(double %13)
  %15 = fptosi double %14 to i32
  ret i32 %15
}